target datalayout = "e-m:e-p270:32:32-p271:32:32-p272:64:64-i64:64-i128:128-f80:128-n8:16:32:64-S128"
target triple = "x86_64-pc-linux-gnu"

%struct.AVChannelLayout = type { i32, i32, %union.anon.2, ptr }
%union.anon.2 = type { i64 }
%struct.AVFilterContext = type { ptr, ptr, ptr, ptr, ptr, i32, ptr, ptr, i32, ptr, ptr, i32, i32, ptr, ptr, ptr, ptr, i32, ptr, i32, i32 }
%struct.ChannelSplitContext = type { ptr, %struct.AVChannelLayout, ptr, ptr }
%struct.AVFilterFormatsConfig = type { ptr, ptr, ptr, ptr, ptr }
%struct.AVChannelCustom = type { i32, [16 x i8], ptr }

; Function Attrs: nounwind uwtable
define internal i32 @query_formats(ptr noundef %0, ptr noundef %1, ptr noundef %2) #1 {
  %4 = alloca i32, align 4
  %5 = alloca ptr, align 8
  %6 = alloca ptr, align 8
  %7 = alloca ptr, align 8
  %8 = alloca ptr, align 8
  %9 = alloca ptr, align 8
  %10 = alloca i32, align 4
  %11 = alloca i32, align 4
  %12 = alloca i32, align 4
  %13 = alloca %struct.AVChannelLayout, align 8
  %14 = alloca ptr, align 8
  %15 = alloca i32, align 4
  store ptr %0, ptr %5, align 8, !tbaa !4
  store ptr %1, ptr %6, align 8, !tbaa !36
  store ptr %2, ptr %7, align 8, !tbaa !36
  call void @llvm.lifetime.start.p0(i64 8, ptr %8) #7
  %16 = load ptr, ptr %5, align 8, !tbaa !4
  %17 = getelementptr inbounds nuw %struct.AVFilterContext, ptr %16, i32 0, i32 9
  %18 = load ptr, ptr %17, align 8, !tbaa !9
  store ptr %18, ptr %8, align 8, !tbaa !22
  call void @llvm.lifetime.start.p0(i64 8, ptr %9) #7
  store ptr null, ptr %9, align 8, !tbaa !38
  call void @llvm.lifetime.start.p0(i64 4, ptr %10) #7
  call void @llvm.lifetime.start.p0(i64 4, ptr %11) #7
  %19 = load ptr, ptr %5, align 8, !tbaa !4
  %20 = load ptr, ptr %6, align 8, !tbaa !36
  %21 = load ptr, ptr %7, align 8, !tbaa !36
  %22 = call ptr @ff_planar_sample_fmts()
  %23 = call i32 @ff_set_common_formats2(ptr noundef %19, ptr noundef %20, ptr noundef %21, ptr noundef %22)
  store i32 %23, ptr %11, align 4, !tbaa !24
  %24 = load i32, ptr %11, align 4, !tbaa !24
  %25 = icmp slt i32 %24, 0
  br i1 %25, label %26, label %28

26:                                               ; preds = %3
  %27 = load i32, ptr %11, align 4, !tbaa !24
  store i32 %27, ptr %4, align 4
  store i32 1, ptr %12, align 4
  br label %107

28:                                               ; preds = %3
  %29 = load ptr, ptr %8, align 8, !tbaa !22
  %30 = getelementptr inbounds nuw %struct.ChannelSplitContext, ptr %29, i32 0, i32 1
  %31 = call i32 @ff_add_channel_layout(ptr noundef %9, ptr noundef %30)
  store i32 %31, ptr %11, align 4, !tbaa !24
  %32 = icmp slt i32 %31, 0
  br i1 %32, label %41, label %33

33:                                               ; preds = %28
  %34 = load ptr, ptr %9, align 8, !tbaa !38
  %35 = load ptr, ptr %6, align 8, !tbaa !36
  %36 = getelementptr inbounds ptr, ptr %35, i64 0
  %37 = load ptr, ptr %36, align 8, !tbaa !40
  %38 = getelementptr inbounds nuw %struct.AVFilterFormatsConfig, ptr %37, i32 0, i32 2
  %39 = call i32 @ff_channel_layouts_ref(ptr noundef %34, ptr noundef %38)
  store i32 %39, ptr %11, align 4, !tbaa !24
  %40 = icmp slt i32 %39, 0
  br i1 %40, label %41, label %43

41:                                               ; preds = %33, %28
  %42 = load i32, ptr %11, align 4, !tbaa !24
  store i32 %42, ptr %4, align 4
  store i32 1, ptr %12, align 4
  br label %107

43:                                               ; preds = %33
  store i32 0, ptr %10, align 4, !tbaa !24
  br label %44

44:                                               ; preds = %103, %43
  %45 = load i32, ptr %10, align 4, !tbaa !24
  %46 = load ptr, ptr %5, align 8, !tbaa !4
  %47 = getelementptr inbounds nuw %struct.AVFilterContext, ptr %46, i32 0, i32 8
  %48 = load i32, ptr %47, align 8, !tbaa !42
  %49 = icmp ult i32 %45, %48
  br i1 %49, label %50, label %106

50:                                               ; preds = %44
  call void @llvm.lifetime.start.p0(i64 24, ptr %13) #7
  call void @llvm.memset.p0.i64(ptr align 8 %13, i8 0, i64 24, i1 false)
  call void @llvm.lifetime.start.p0(i64 8, ptr %14) #7
  store ptr null, ptr %14, align 8, !tbaa !38
  call void @llvm.lifetime.start.p0(i64 4, ptr %15) #7
  %51 = load ptr, ptr %8, align 8, !tbaa !22
  %52 = getelementptr inbounds nuw %struct.ChannelSplitContext, ptr %51, i32 0, i32 1
  %53 = load ptr, ptr %8, align 8, !tbaa !22
  %54 = getelementptr inbounds nuw %struct.ChannelSplitContext, ptr %53, i32 0, i32 3
  %55 = load ptr, ptr %54, align 8, !tbaa !30
  %56 = load i32, ptr %10, align 4, !tbaa !24
  %57 = sext i32 %56 to i64
  %58 = getelementptr inbounds i32, ptr %55, i64 %57
  %59 = load i32, ptr %58, align 4, !tbaa !24
  %60 = call i32 @av_channel_layout_channel_from_index(ptr noundef %52, i32 noundef %59)
  store i32 %60, ptr %15, align 4, !tbaa !24
  %61 = call noalias ptr @av_mallocz(i64 noundef 32)
  %62 = getelementptr inbounds nuw %struct.AVChannelLayout, ptr %13, i32 0, i32 2
  store ptr %61, ptr %62, align 8, !tbaa !43
  %63 = getelementptr inbounds nuw %struct.AVChannelLayout, ptr %13, i32 0, i32 2
  %64 = load ptr, ptr %63, align 8, !tbaa !43
  %65 = icmp ne ptr %64, null
  br i1 %65, label %67, label %66

66:                                               ; preds = %50
  store i32 -12, ptr %4, align 4
  store i32 1, ptr %12, align 4
  br label %100

67:                                               ; preds = %50
  %68 = load i32, ptr %15, align 4, !tbaa !24
  %69 = getelementptr inbounds nuw %struct.AVChannelLayout, ptr %13, i32 0, i32 2
  %70 = load ptr, ptr %69, align 8, !tbaa !43
  %71 = getelementptr inbounds %struct.AVChannelCustom, ptr %70, i64 0
  %72 = getelementptr inbounds nuw %struct.AVChannelCustom, ptr %71, i32 0, i32 0
  store i32 %68, ptr %72, align 8, !tbaa !44
  %73 = getelementptr inbounds nuw %struct.AVChannelLayout, ptr %13, i32 0, i32 1
  store i32 1, ptr %73, align 4, !tbaa !29
  %74 = getelementptr inbounds nuw %struct.AVChannelLayout, ptr %13, i32 0, i32 0
  store i32 2, ptr %74, align 8, !tbaa !46
  %75 = call i32 @av_channel_layout_retype(ptr noundef %13, i32 noundef 0, i32 noundef 2)
  store i32 %75, ptr %11, align 4, !tbaa !24
  %76 = load i32, ptr %11, align 4, !tbaa !24
  %77 = icmp slt i32 %76, 0
  br i1 %77, label %78, label %80

78:                                               ; preds = %67
  call void @av_channel_layout_uninit(ptr noundef %13)
  %79 = load i32, ptr %11, align 4, !tbaa !24
  store i32 %79, ptr %4, align 4
  store i32 1, ptr %12, align 4
  br label %100

80:                                               ; preds = %67
  %81 = call i32 @ff_add_channel_layout(ptr noundef %14, ptr noundef %13)
  store i32 %81, ptr %11, align 4, !tbaa !24
  call void @av_channel_layout_uninit(ptr noundef %13)
  %82 = load i32, ptr %11, align 4, !tbaa !24
  %83 = icmp slt i32 %82, 0
  br i1 %83, label %84, label %86

84:                                               ; preds = %80
  %85 = load i32, ptr %11, align 4, !tbaa !24
  store i32 %85, ptr %4, align 4
  store i32 1, ptr %12, align 4
  br label %100

86:                                               ; preds = %80
  %87 = load ptr, ptr %14, align 8, !tbaa !38
  %88 = load ptr, ptr %7, align 8, !tbaa !36
  %89 = load i32, ptr %10, align 4, !tbaa !24
  %90 = sext i32 %89 to i64
  %91 = getelementptr inbounds ptr, ptr %88, i64 %90
  %92 = load ptr, ptr %91, align 8, !tbaa !40
  %93 = getelementptr inbounds nuw %struct.AVFilterFormatsConfig, ptr %92, i32 0, i32 2
  %94 = call i32 @ff_channel_layouts_ref(ptr noundef %87, ptr noundef %93)
  store i32 %94, ptr %11, align 4, !tbaa !24
  %95 = load i32, ptr %11, align 4, !tbaa !24
  %96 = icmp slt i32 %95, 0
  br i1 %96, label %97, label %99

97:                                               ; preds = %86
  %98 = load i32, ptr %11, align 4, !tbaa !24
  store i32 %98, ptr %4, align 4
  store i32 1, ptr %12, align 4
  br label %100

99:                                               ; preds = %86
  store i32 0, ptr %12, align 4
  br label %100

100:                                              ; preds = %99, %97, %84, %78, %66
  call void @llvm.lifetime.end.p0(i64 4, ptr %15) #7
  call void @llvm.lifetime.end.p0(i64 8, ptr %14) #7
  call void @llvm.lifetime.end.p0(i64 24, ptr %13) #7
  %101 = load i32, ptr %12, align 4
  switch i32 %101, label %107 [
    i32 0, label %102
  ]

102:                                              ; preds = %100
  br label %103

103:                                              ; preds = %102
  %104 = load i32, ptr %10, align 4, !tbaa !24
  %105 = add nsw i32 %104, 1
  store i32 %105, ptr %10, align 4, !tbaa !24
  br label %44, !llvm.loop !47

106:                                              ; preds = %44
  store i32 0, ptr %4, align 4
  store i32 1, ptr %12, align 4
  br label %107

107:                                              ; preds = %106, %100, %41, %26
  call void @llvm.lifetime.end.p0(i64 4, ptr %11) #7
  call void @llvm.lifetime.end.p0(i64 4, ptr %10) #7
  call void @llvm.lifetime.end.p0(i64 8, ptr %9) #7
  call void @llvm.lifetime.end.p0(i64 8, ptr %8) #7
  %108 = load i32, ptr %4, align 4
  ret i32 %108
}