; Function Attrs: nounwind uwtable
define internal range(i32 -2147483648, 1) i32 @query_formats(ptr noundef %0, ptr noundef %1, ptr noundef %2) #1 {
  %4 = alloca ptr, align 8
  %5 = alloca %struct.AVChannelLayout, align 8
  %6 = alloca ptr, align 8
  %7 = getelementptr inbounds nuw i8, ptr %0, i64 72
  %8 = load ptr, ptr %7, align 8, !tbaa !4
  call void @llvm.lifetime.start.p0(i64 8, ptr nonnull %4) #6
  store ptr null, ptr %4, align 8, !tbaa !32
  %9 = tail call ptr @ff_planar_sample_fmts() #6
  %10 = tail call i32 @ff_set_common_formats2(ptr noundef %0, ptr noundef %1, ptr noundef %2, ptr noundef %9) #6
  %11 = icmp slt i32 %10, 0
  br i1 %11, label %.loopexit, label %12

12:                                               ; preds = %3
  %13 = getelementptr inbounds nuw i8, ptr %8, i64 8
  %14 = call i32 @ff_add_channel_layout(ptr noundef nonnull %4, ptr noundef nonnull %13) #6
  %15 = icmp slt i32 %14, 0
  br i1 %15, label %.loopexit, label %16

16:                                               ; preds = %12
  %17 = load ptr, ptr %4, align 8, !tbaa !32
  %18 = load ptr, ptr %1, align 8, !tbaa !34
  %19 = getelementptr inbounds nuw i8, ptr %18, i64 16
  %20 = call i32 @ff_channel_layouts_ref(ptr noundef %17, ptr noundef nonnull %19) #6
  %21 = icmp slt i32 %20, 0
  br i1 %21, label %.loopexit, label %.preheader

.preheader:                                       ; preds = %16
  %22 = getelementptr inbounds nuw i8, ptr %0, i64 64
  %23 = load i32, ptr %22, align 8, !tbaa !36
  %.not41 = icmp eq i32 %23, 0
  br i1 %.not41, label %.loopexit, label %.lr.ph

.lr.ph:                                           ; preds = %.preheader
  %24 = getelementptr inbounds nuw i8, ptr %8, i64 40
  %25 = getelementptr inbounds nuw i8, ptr %5, i64 8
  %26 = getelementptr inbounds nuw i8, ptr %5, i64 4
  br label %31

27:                                               ; preds = %44
  %indvars.iv.next = add nuw nsw i64 %indvars.iv, 1
  %28 = load i32, ptr %22, align 8, !tbaa !36
  %29 = zext i32 %28 to i64
  %30 = icmp samesign ult i64 %indvars.iv.next, %29
  br i1 %30, label %31, label %.loopexit, !llvm.loop !37

31:                                               ; preds = %.lr.ph, %27
  %indvars.iv = phi i64 [ 0, %.lr.ph ], [ %indvars.iv.next, %27 ]
  call void @llvm.lifetime.start.p0(i64 24, ptr nonnull %5) #6
  call void @llvm.memset.p0.i64(ptr noundef nonnull align 8 dereferenceable(24) %5, i8 0, i64 24, i1 false)
  call void @llvm.lifetime.start.p0(i64 8, ptr nonnull %6) #6
  store ptr null, ptr %6, align 8, !tbaa !32
  %32 = load ptr, ptr %24, align 8, !tbaa !25
  %33 = getelementptr inbounds nuw i32, ptr %32, i64 %indvars.iv
  %34 = load i32, ptr %33, align 4, !tbaa !29
  %35 = call i32 @av_channel_layout_channel_from_index(ptr noundef nonnull %13, i32 noundef %34) #6
  %36 = call noalias ptr @av_mallocz(i64 noundef 32) #6
  store ptr %36, ptr %25, align 8, !tbaa !38
  %.not = icmp eq ptr %36, null
  br i1 %.not, label %.thread, label %37

37:                                               ; preds = %31
  store i32 %35, ptr %36, align 8, !tbaa !39
  store i32 1, ptr %26, align 4, !tbaa !24
  store i32 2, ptr %5, align 8, !tbaa !41
  %38 = call i32 @av_channel_layout_retype(ptr noundef nonnull %5, i32 noundef 0, i32 noundef 2) #6
  %39 = icmp slt i32 %38, 0
  br i1 %39, label %40, label %41

40:                                               ; preds = %37
  call void @av_channel_layout_uninit(ptr noundef nonnull %5) #6
  br label %.thread

41:                                               ; preds = %37
  %42 = call i32 @ff_add_channel_layout(ptr noundef nonnull %6, ptr noundef nonnull %5) #6
  call void @av_channel_layout_uninit(ptr noundef nonnull %5) #6
  %43 = icmp slt i32 %42, 0
  br i1 %43, label %.thread, label %44

.thread:                                          ; preds = %31, %41, %40
  %.2.ph = phi i32 [ %38, %40 ], [ -12, %31 ], [ %42, %41 ]
  call void @llvm.lifetime.end.p0(i64 8, ptr nonnull %6) #6
  call void @llvm.lifetime.end.p0(i64 24, ptr nonnull %5) #6
  br label %.loopexit

44:                                               ; preds = %41
  %45 = load ptr, ptr %6, align 8, !tbaa !32
  %46 = getelementptr inbounds nuw ptr, ptr %2, i64 %indvars.iv
  %47 = load ptr, ptr %46, align 8, !tbaa !34
  %48 = getelementptr inbounds nuw i8, ptr %47, i64 16
  %49 = call i32 @ff_channel_layouts_ref(ptr noundef %45, ptr noundef nonnull %48) #6
  %50 = icmp sgt i32 %49, -1
  call void @llvm.lifetime.end.p0(i64 8, ptr nonnull %6) #6
  call void @llvm.lifetime.end.p0(i64 24, ptr nonnull %5) #6
  br i1 %50, label %27, label %.loopexit

.loopexit:                                        ; preds = %44, %27, %.preheader, %.thread, %12, %16, %3
  %.0 = phi i32 [ %10, %3 ], [ %14, %12 ], [ %20, %16 ], [ %.2.ph, %.thread ], [ 0, %.preheader ], [ %49, %44 ], [ 0, %27 ]
  call void @llvm.lifetime.end.p0(i64 8, ptr nonnull %4) #6
  ret i32 %.0
}